MPLINK 5.08, LINKER
Linker Map File - Created Thu Oct 15 10:44:56 2020

                                 Section Info
                  Section       Type    Address   Location Size(Bytes)
                ---------  ---------  ---------  ---------  ---------
                   .org_0       code   0x000000    program   0x000154
                   .cinit    romdata   0x0000aa    program   0x000004
.config_2007_BUILD/DEFAULT/DEBUG/ADCPOLLING8B       code   0x002007    program   0x000002
.config_2008_BUILD/DEFAULT/DEBUG/ADCPOLLING8B       code   0x002008    program   0x000002



                              Program Memory Usage 
                               Start         End      
                           ---------   ---------      
                            0x000000    0x0000ab      
                            0x002007    0x002008      
            174 out of 8455 program addresses used, program memory utilization is 2%



                              Symbols - Sorted by Name
                     Name    Address   Location    Storage File                     
                ---------  ---------  ---------  --------- ---------                
             AfterAdding3   0x00009f    program     static C:\Users\ASUS\Documents\GitHub\dig2C\adc\adc.X\adcpolling8bit.asm
            AfterAdding_3   0x0000a8    program     static C:\Users\ASUS\Documents\GitHub\dig2C\adc\adc.X\adcpolling8bit.asm
               Binary2BCD   0x000077    program     static C:\Users\ASUS\Documents\GitHub\dig2C\adc\adc.X\adcpolling8bit.asm
                  CONVERT   0x000044    program     static C:\Users\ASUS\Documents\GitHub\dig2C\adc\adc.X\adcpolling8bit.asm
               DELAY_20MS   0x00006e    program     static C:\Users\ASUS\Documents\GitHub\dig2C\adc\adc.X\adcpolling8bit.asm
         DISP_UPDATE_TENS   0x00005c    program     static C:\Users\ASUS\Documents\GitHub\dig2C\adc\adc.X\adcpolling8bit.asm
         DISP_UPDATE_UNIT   0x000056    program     static C:\Users\ASUS\Documents\GitHub\dig2C\adc\adc.X\adcpolling8bit.asm
                     INIT   0x000001    program     static C:\Users\ASUS\Documents\GitHub\dig2C\adc\adc.X\adcpolling8bit.asm
                      RUN   0x00003c    program     static C:\Users\ASUS\Documents\GitHub\dig2C\adc\adc.X\adcpolling8bit.asm
                  RUN_ADC   0x00001c    program     static C:\Users\ASUS\Documents\GitHub\dig2C\adc\adc.X\adcpolling8bit.asm
               Repeticion   0x000039    program     static C:\Users\ASUS\Documents\GitHub\dig2C\adc\adc.X\adcpolling8bit.asm
              Repeticion1   0x000070    program     static C:\Users\ASUS\Documents\GitHub\dig2C\adc\adc.X\adcpolling8bit.asm
              Repeticion2   0x000072    program     static C:\Users\ASUS\Documents\GitHub\dig2C\adc\adc.X\adcpolling8bit.asm
        RotateZeroIntoHun   0x000090    program     static C:\Users\ASUS\Documents\GitHub\dig2C\adc\adc.X\adcpolling8bit.asm
        RotateZeroIntoTen   0x000088    program     static C:\Users\ASUS\Documents\GitHub\dig2C\adc\adc.X\adcpolling8bit.asm
          SEVENSEG_LOOKUP   0x000062    program     static C:\Users\ASUS\Documents\GitHub\dig2C\adc\adc.X\adcpolling8bit.asm
                     SHOW   0x00002a    program     static C:\Users\ASUS\Documents\GitHub\dig2C\adc\adc.X\adcpolling8bit.asm
               SampleTime   0x000037    program     static C:\Users\ASUS\Documents\GitHub\dig2C\adc\adc.X\adcpolling8bit.asm
                 WAIT_ACQ   0x000020    program     static C:\Users\ASUS\Documents\GitHub\dig2C\adc\adc.X\adcpolling8bit.asm
         completeTenCarry   0x000092    program     static C:\Users\ASUS\Documents\GitHub\dig2C\adc\adc.X\adcpolling8bit.asm
        completeUnitCarry   0x00008a    program     static C:\Users\ASUS\Documents\GitHub\dig2C\adc\adc.X\adcpolling8bit.asm
                 continue   0x000096    program     static C:\Users\ASUS\Documents\GitHub\dig2C\adc\adc.X\adcpolling8bit.asm
            endBinary2BCD   0x0000a9    program     static C:\Users\ASUS\Documents\GitHub\dig2C\adc\adc.X\adcpolling8bit.asm
                 fin_show   0x000036    program     static C:\Users\ASUS\Documents\GitHub\dig2C\adc\adc.X\adcpolling8bit.asm
                    setl8   0x000030    program     static C:\Users\ASUS\Documents\GitHub\dig2C\adc\adc.X\adcpolling8bit.asm
                    setl9   0x000035    program     static C:\Users\ASUS\Documents\GitHub\dig2C\adc\adc.X\adcpolling8bit.asm
                  show_L9   0x000031    program     static C:\Users\ASUS\Documents\GitHub\dig2C\adc\adc.X\adcpolling8bit.asm
          startconversion   0x000080    program     static C:\Users\ASUS\Documents\GitHub\dig2C\adc\adc.X\adcpolling8bit.asm



                              Symbols - Sorted by Address
                     Name    Address   Location    Storage File                     
                ---------  ---------  ---------  --------- ---------                
                     INIT   0x000001    program     static C:\Users\ASUS\Documents\GitHub\dig2C\adc\adc.X\adcpolling8bit.asm
                  RUN_ADC   0x00001c    program     static C:\Users\ASUS\Documents\GitHub\dig2C\adc\adc.X\adcpolling8bit.asm
                 WAIT_ACQ   0x000020    program     static C:\Users\ASUS\Documents\GitHub\dig2C\adc\adc.X\adcpolling8bit.asm
                     SHOW   0x00002a    program     static C:\Users\ASUS\Documents\GitHub\dig2C\adc\adc.X\adcpolling8bit.asm
                    setl8   0x000030    program     static C:\Users\ASUS\Documents\GitHub\dig2C\adc\adc.X\adcpolling8bit.asm
                  show_L9   0x000031    program     static C:\Users\ASUS\Documents\GitHub\dig2C\adc\adc.X\adcpolling8bit.asm
                    setl9   0x000035    program     static C:\Users\ASUS\Documents\GitHub\dig2C\adc\adc.X\adcpolling8bit.asm
                 fin_show   0x000036    program     static C:\Users\ASUS\Documents\GitHub\dig2C\adc\adc.X\adcpolling8bit.asm
               SampleTime   0x000037    program     static C:\Users\ASUS\Documents\GitHub\dig2C\adc\adc.X\adcpolling8bit.asm
               Repeticion   0x000039    program     static C:\Users\ASUS\Documents\GitHub\dig2C\adc\adc.X\adcpolling8bit.asm
                      RUN   0x00003c    program     static C:\Users\ASUS\Documents\GitHub\dig2C\adc\adc.X\adcpolling8bit.asm
                  CONVERT   0x000044    program     static C:\Users\ASUS\Documents\GitHub\dig2C\adc\adc.X\adcpolling8bit.asm
         DISP_UPDATE_UNIT   0x000056    program     static C:\Users\ASUS\Documents\GitHub\dig2C\adc\adc.X\adcpolling8bit.asm
         DISP_UPDATE_TENS   0x00005c    program     static C:\Users\ASUS\Documents\GitHub\dig2C\adc\adc.X\adcpolling8bit.asm
          SEVENSEG_LOOKUP   0x000062    program     static C:\Users\ASUS\Documents\GitHub\dig2C\adc\adc.X\adcpolling8bit.asm
               DELAY_20MS   0x00006e    program     static C:\Users\ASUS\Documents\GitHub\dig2C\adc\adc.X\adcpolling8bit.asm
              Repeticion1   0x000070    program     static C:\Users\ASUS\Documents\GitHub\dig2C\adc\adc.X\adcpolling8bit.asm
              Repeticion2   0x000072    program     static C:\Users\ASUS\Documents\GitHub\dig2C\adc\adc.X\adcpolling8bit.asm
               Binary2BCD   0x000077    program     static C:\Users\ASUS\Documents\GitHub\dig2C\adc\adc.X\adcpolling8bit.asm
          startconversion   0x000080    program     static C:\Users\ASUS\Documents\GitHub\dig2C\adc\adc.X\adcpolling8bit.asm
        RotateZeroIntoTen   0x000088    program     static C:\Users\ASUS\Documents\GitHub\dig2C\adc\adc.X\adcpolling8bit.asm
        completeUnitCarry   0x00008a    program     static C:\Users\ASUS\Documents\GitHub\dig2C\adc\adc.X\adcpolling8bit.asm
        RotateZeroIntoHun   0x000090    program     static C:\Users\ASUS\Documents\GitHub\dig2C\adc\adc.X\adcpolling8bit.asm
         completeTenCarry   0x000092    program     static C:\Users\ASUS\Documents\GitHub\dig2C\adc\adc.X\adcpolling8bit.asm
                 continue   0x000096    program     static C:\Users\ASUS\Documents\GitHub\dig2C\adc\adc.X\adcpolling8bit.asm
             AfterAdding3   0x00009f    program     static C:\Users\ASUS\Documents\GitHub\dig2C\adc\adc.X\adcpolling8bit.asm
            AfterAdding_3   0x0000a8    program     static C:\Users\ASUS\Documents\GitHub\dig2C\adc\adc.X\adcpolling8bit.asm
            endBinary2BCD   0x0000a9    program     static C:\Users\ASUS\Documents\GitHub\dig2C\adc\adc.X\adcpolling8bit.asm


