MPASM 5.68                      CONTADOR.ASM   10-4-2020  21:00:20         PAGE  1


LOC  OBJECT CODE     LINE SOURCE TEXT
  VALUE

                      00001 ; CONFIG1
                      00002 ; __config 0xF8F1
2007   38F1           00003  __CONFIG _CONFIG1, _FOSC_XT & _WDTE_OFF & _PWRTE_OFF & _MCLRE_ON & _CP_OFF & _CPD_OFF & _BOREN_OFF & _I
                            ESO_OFF & _FCMEN_ON & _LVP_ON
                      00004 ; CONFIG2
                      00005 ; __config 0xFFFF
2008   3FFF           00006  __CONFIG _CONFIG2, _BOR4V_BOR40V & _WRT_OFF
                      00007     
                      00008     
                      00009     LIST p=16F887
                      00010     INCLUDE <P16F887.INC>
                      00001         LIST
                      00002 
                      00003 ;==========================================================================
                      00004 ; Build date : May 15 2016
                      00005 ;  MPASM PIC16F887 processor include
                      00006 ; 
                      00007 ;  (c) Copyright 1999-2016 Microchip Technology, All rights reserved
                      00008 ;==========================================================================
                      00009 
                      00810         LIST
                      00011 
  00000000            00012 Boton_asc       EQU     0       ; Definimos Led como RB0
  00000001            00013 Boton_dsc       EQU     1       ; Definimos Led como RB1
  00000002            00014 Switch_activar  EQU     2       ; Definimos Led como RB2
                      00015     
                      00016 
  00000020            00017 Contador1       EQU 0x20
  00000021            00018 Contador2       EQU 0x21
  00000022            00019 DISP_COUNTER    EQU 0x22
  00000023            00020 DISP_DEFAULT    EQU 0x23
  00000024            00021 DISP_FREQ       EQU 0x24
                      00022 
  00000025            00023 Hundred EQU 0x25
  00000026            00024 Tens    EQU 0x26
  00000027            00025 Units   EQU 0x27        
  00000028            00026 bin     EQU 0x28
  00000029            00027 count8  EQU 0x29
  0000002A            00028 temp    EQU 0x2A
                      00029  
                      00030     ORG 0x00 ; Inicio de programa
0000   2???           00031     goto INIT
                      00032  ;**** Configurar el puerto****
0001                  00033 INIT
0001   1683           00034         bsf STATUS,RP0 ; Cambia al Banco 1
0002   3000           00035         movlw 00h ; Configura los pines del puerto D ...
Message[302]: Register in operand not in bank 0.  Ensure that bank bits are correct.
0003   0088           00036         movwf TRISD ; ...como salidas.
Message[302]: Register in operand not in bank 0.  Ensure that bank bits are correct.
0004   0085           00037         movwf TRISA ; ...como salidas.
0005   3007           00038         movlw   b'00000111'        ; Cargamos b'00000111' en W
Message[302]: Register in operand not in bank 0.  Ensure that bank bits are correct.
0006   0086           00039         movwf   TRISB           ; Cargamos W en TRISA, RA0 como entrada
MPASM 5.68                      CONTADOR.ASM   10-4-2020  21:00:20         PAGE  2


LOC  OBJECT CODE     LINE SOURCE TEXT
  VALUE

                      00040         
0007   1703           00041         BSF STATUS,RP1 ; Accede a banco 3
Message[302]: Register in operand not in bank 0.  Ensure that bank bits are correct.
0008   0188           00042         CLRF ANSEL  ; 
Message[302]: Register in operand not in bank 0.  Ensure that bank bits are correct.
0009   0189           00043         CLRF ANSELH ;
000A   1283           00044         BCF STATUS,RP0 ; Regresa a banco 0 RP0 = 0
000B   1303           00045         BCF STATUS,RP1 ; Regresa a banco 0 RP1 = 0
                      00046         
000C   3000           00047         movlw 00h ; Configura nuestro registro w con 00h
000D   0088           00048         movwf PORTD ; ...como salidas.
000E   0085           00049         movwf PORTA ; ...como salidas.
000F   3020           00050         movlw 20h ; Configura nuestro registro w con 02h
0010   00A4           00051         movwf DISP_FREQ
0011   3020           00052         movlw 20h ; Configura nuestro registro w con 02h
0012   00A3           00053         movwf DISP_DEFAULT
0013   00A2           00054         movwf DISP_COUNTER
0014   00A8           00055         MOVWF bin ; 0x20
0015   2???           00056         CALL Binary2BCD ; tens = 3 unit = 2 
0016                  00057 MAIN
0016   1D06           00058         btfss PORTB,Switch_activar          ; Esta pulsado el Boton (RA0=1??)
0017   2???           00059         GOTO RUN
0018   2???           00060         GOTO SETTING
0019                  00061 RUN
0019   2???           00062         CALL DISP_UPDATE_UNIT ; 2
001A   2???           00063         CALL DELAY_20MS
001B   2???           00064         CALL DISP_UPDATE_TENS; 3
001C   2???           00065         CALL DELAY_20MS
Message[305]: Using default destination of 1 (file).
001D   0BA4           00066         DECFSZ DISP_FREQ
001E   2???           00067         GOTO MAIN
001F   0BA2           00068         DECFSZ DISP_COUNTER,F ;0x1f = 31 decimal
0020   2???           00069         GOTO INIT_FREQ
0021   2???           00070         CALL INIT_COUNTER
0022                  00071 INIT_FREQ
0022   0822           00072         MOVF DISP_COUNTER,0
0023   00A8           00073         MOVWF bin ; 0x20
0024   2???           00074         CALL Binary2BCD ; tens = 3 unit = 2 
0025   3020           00075         movlw 20h ; Configura nuestro registro w con 02h
0026   00A4           00076         movwf DISP_FREQ
0027   2???           00077         GOTO MAIN
                      00078 
                      00079 ;--------------------------------------------------------------------------
                      00080 ; INITIALIZE COUNTER
                      00081 ;--------------------------------------------------------------------------     
                      00082 
0028                  00083 INIT_COUNTER
0028   0823           00084         movf DISP_DEFAULT,0 ; Muevo el valor por defecto al registro W
0029   00A2           00085         movwf DISP_COUNTER  ; cargo el valor del registro W al Contador
002A   0008           00086         RETURN
                      00087 
                      00088 ;********** R U T I N A * T E S T E O ******************************************
002B                  00089 SETTING
MPASM 5.68                      CONTADOR.ASM   10-4-2020  21:00:20         PAGE  3


LOC  OBJECT CODE     LINE SOURCE TEXT
  VALUE

002B   2???           00090         CALL UPDATE_BTN_ASC
002C   2???           00091         CALL UPDATE_BTN_DSC
002D   2???           00092         CALL INIT_COUNTER
002E   0822           00093         MOVF DISP_COUNTER,0
002F   00A8           00094         MOVWF bin ; 0x20
0030   2???           00095         CALL Binary2BCD ; tens = 3 unit = 2
0031   2???           00096         CALL DISP_UPDATE_UNIT ; 2
0032   2???           00097         CALL DELAY_20MS
0033   2???           00098         CALL DISP_UPDATE_TENS; 3
0034   2???           00099         CALL DELAY_20MS
                      00100         
0035   2???           00101         GOTO INIT_FREQ
                      00102         
                      00103         
0036                  00104 UPDATE_BTN_ASC
0036   1C06           00105         btfss   PORTB,Boton_asc     ; Esta pulsado el Boton (RA0=1??)
0037   2???           00106         goto    END_BTN_ASC         ; No??, seguimos testeando
0038   2???           00107         call    DELAY_20MS        ; Si??, Eliminamos efecto rebote
0039   1C06           00108         btfss   PORTB,Boton_asc     ; Testeamos nuevamente
003A   2???           00109         goto    END_BTN_ASC         ; Falsa Alarma, seguimos testeando
003B   0AA3           00110         incf    DISP_DEFAULT,1   ; Se ha pulsado, incrementamos Valor Default
003C                  00111 RELEASE_BTN_ASC
003C   1806           00112         btfsc   PORTB,Boton_asc         ; Boton se dejo de pulsar??
003D   2???           00113         goto    RELEASE_BTN_ASC     ; No??, PCL - 1, --> btfsc PORTA,Boton
003E   2???           00114         call    DELAY_20MS              ; Si??, Eliminamos efecto rebote
003F   1806           00115         btfsc   PORTB,Boton_asc         ; Testeamos nuevamente si se dejo de pulsar
0040   2???           00116         goto    RELEASE_BTN_ASC                ; No??, Falsa alarma, volvemos a checar
0041   2???           00117         goto    END_BTN_ASC         ; Falsa Alarma, seguimos testeando
                      00118         
0042                  00119 END_BTN_ASC
0042   0008           00120         RETURN
                      00121 
0043                  00122 UPDATE_BTN_DSC
0043   1C86           00123         btfss   PORTB,Boton_dsc     ; Esta pulsado el Boton (RA0=1??)
0044   2???           00124         goto    END_BTN_DSC         ; No??, seguimos testeando
0045   2???           00125         call    DELAY_20MS        ; Si??, Eliminamos efecto rebote
0046   1C86           00126         btfss   PORTB,Boton_dsc     ; Testeamos nuevamente
0047   2???           00127         goto    END_BTN_DSC         ; Falsa Alarma, seguimos testeando
0048   03A3           00128         decf    DISP_DEFAULT,1   ; Se ha pulsado, incrementamos Valor Default
0049                  00129 RELEASE_BTN_DSC
0049   1886           00130         btfsc   PORTB,Boton_dsc         ; Boton se dejo de pulsar??
004A   2???           00131         goto    RELEASE_BTN_DSC     ; No??, PCL - 1, --> btfsc PORTA,Boton
004B   2???           00132         call    DELAY_20MS              ; Si??, Eliminamos efecto rebote
004C   1886           00133         btfsc   PORTB,Boton_dsc         ; Testeamos nuevamente si se dejo de pulsar
004D   2???           00134         goto    RELEASE_BTN_DSC                ; No??, Falsa alarma, volvemos a checar
004E   2???           00135         goto    END_BTN_DSC         ; Falsa Alarma, seguimos testeando
                      00136 
004F                  00137 END_BTN_DSC
004F   0008           00138         RETURN
                      00139         
                      00140    
                      00141 ;--------------------------------------------------------------------------
                      00142 ; DISPLAY 7 SEGMENTS
MPASM 5.68                      CONTADOR.ASM   10-4-2020  21:00:20         PAGE  4


LOC  OBJECT CODE     LINE SOURCE TEXT
  VALUE

                      00143 ;--------------------------------------------------------------------------     
0050                  00144 DISP_UPDATE_UNIT
0050   1005           00145         BCF PORTA,0 ;TURN OFF DIGIT 2.
0051   0827           00146         MOVF Units,0
0052   2???           00147         CALL SEVENSEG_LOOKUP
0053   0088           00148         MOVWF PORTD ;PUT DATA ON PORTB.
0054   1485           00149         BSF PORTA,1 ;TURN ON DIGIT 1.
0055   0008           00150         RETURN
                      00151         
0056                  00152 DISP_UPDATE_TENS
0056   1085           00153         BCF PORTA,1 ;TURN OFF DIGIT 1.
0057   0826           00154         MOVF Tens,0
0058   2???           00155         CALL SEVENSEG_LOOKUP
0059   0088           00156         MOVWF PORTD ;PUT DATA ON PORTB.
005A   1405           00157         BSF PORTA,0 ;TURN ON DIGIT 2.
005B   0008           00158         RETURN
                      00159 ;--------------------------------------------------------------------------
                      00160 ; NUMBERIC LOOKUP TABLE FOR 7 SEG
                      00161 ;--------------------------------------------------------------------------
005C                  00162 SEVENSEG_LOOKUP 
005C   0782           00163         ADDWF PCL,f
005D   343F           00164         RETLW 3Fh ; //Hex value to display the number 0.
005E   3406           00165         RETLW 06h ; //Hex value to display the number 1.
005F   345B           00166         RETLW 5Bh ; //Hex value to display the number 2.
0060   344F           00167         RETLW 4Fh ; //Hex value to display the number 3.
0061   3466           00168         RETLW 66h ; //Hex value to display the number 4.
0062   346D           00169         RETLW 6Dh ; //Hex value to display the number 5.
0063   347C           00170         RETLW 7Ch ; //Hex value to display the number 6.
0064   3407           00171         RETLW 07h ; //Hex value to display the number 7.
0065   347F           00172         RETLW 7Fh ; //Hex value to display the number 8.
0066   346F           00173         RETLW 6Fh ; //Hex value to display the number 9.
0067   0008           00174         RETURN
                      00175 ;--------------------------------------------------------------------------
                      00176 ; DELAY 20 MILLISECONDS
                      00177 ;--------------------------------------------------------------------------
0068                  00178 DELAY_20MS
0068   30FF           00179         movlw   0xFF                    ;
0069   00A0           00180         movwf   Contador1               ; Iniciamos contador1.-
006A                  00181 Repeticion1
006A   3019           00182         movlw   0x19                    ;
006B   00A1           00183         movwf   Contador2               ; Iniciamos contador2
006C                  00184 Repeticion2
006C   0BA1           00185         decfsz  Contador2,1             ; Decrementa Contador2 y si es 0 sale.-
006D   2???           00186         goto    Repeticion2             ; Si no es 0 repetimos ciclo.-
006E   0BA0           00187         decfsz  Contador1,1             ; Decrementa Contador1.-
006F   2???           00188         goto    Repeticion1             ; Si no es cero repetimos ciclo.-
0070   0008           00189         return                          ; Regresa de la subrutina.-
                      00190 
                      00191 ;--------------------------------------------------------------------------
                      00192 ; CONVERTER BINARY TO BCD
                      00193 ;--------------------------------------------------------------------------
0071                  00194 Binary2BCD
0071   01A5           00195         clrf            Hundred
MPASM 5.68                      CONTADOR.ASM   10-4-2020  21:00:20         PAGE  5


LOC  OBJECT CODE     LINE SOURCE TEXT
  VALUE

0072   01A6           00196         clrf            Tens
0073   01A7           00197         clrf            Units
0074   3008           00198         movlw           0x08
0075   00A9           00199         movwf           count8
                      00200         ; check if bin is zero  
0076   3000           00201         movlw           0x00
0077   07A8           00202         addwf           bin, f
0078   1903           00203         btfsc           STATUS, Z
0079   2???           00204         goto            endBinary2BCD
007A                  00205 startconversion 
                      00206         ; rotate MSB from bin into Units
007A   1003           00207         bcf             STATUS, C
007B   0DA8           00208         rlf             bin, f
007C   0DA7           00209         rlf             Units, f
                      00210         ; check if a carry happened to 5th bit of Units 
                      00211         ; helps to move the carry from nibble to a different byte
007D   1E27           00212         btfss           Units, 0x04
007E   2???           00213         goto            RotateZeroIntoTen
007F   1403           00214         bsf             STATUS, C
0080   0DA6           00215         rlf             Tens, f
0081   2???           00216         goto            completeUnitCarry       
0082                  00217 RotateZeroIntoTen
0082   1003           00218         bcf             STATUS, C
0083   0DA6           00219         rlf             Tens, f
0084                  00220 completeUnitCarry       
0084   1227           00221         bcf             Units, 0x04
                      00222         ; check if a carry happend to the 5th bit of Tens
                      00223         ; helps to move the carry from nibble to a different byte
0085   1E26           00224         btfss           Tens, 0x04
0086   2???           00225         goto            RotateZeroIntoHun
0087   1403           00226         bsf             STATUS, C
0088   0DA5           00227         rlf             Hundred, f
0089   2???           00228         goto            completeTenCarry        
008A                  00229 RotateZeroIntoHun
008A   1003           00230         bcf             STATUS, C
008B   0DA5           00231         rlf             Hundred, f
008C                  00232 completeTenCarry        
008C   1226           00233         bcf             Tens, 0x04
008D   0BA9           00234         decfsz          count8,f
008E   2???           00235         goto            continue
008F   2???           00236         goto            endBinary2BCD
0090                  00237 continue
                      00238         ; check if you need to add 3 to Units if it is greater or equal to 5
0090   0827           00239         movf            Units, w
0091   00AA           00240         movwf           temp
0092   3005           00241         movlw           0x05
0093   02AA           00242         subwf           temp, f
0094   1C03           00243         btfss           STATUS, C
0095   2???           00244         goto            AfterAdding3
0096   0827           00245         movf            Units, w
0097   3E03           00246         addlw           0x03
0098   00A7           00247         movwf           Units
0099                  00248 AfterAdding3    
MPASM 5.68                      CONTADOR.ASM   10-4-2020  21:00:20         PAGE  6


LOC  OBJECT CODE     LINE SOURCE TEXT
  VALUE

                      00249         ; check if you need to add 3 to Tens if it is greater or equal to 5
0099   0826           00250         movf            Tens, w
009A   00AA           00251         movwf           temp
009B   3005           00252         movlw           0x05
009C   02AA           00253         subwf           temp, f
009D   1C03           00254         btfss           STATUS, C
009E   2???           00255         goto            AfterAdding_3
009F   0826           00256         movf            Tens, w
00A0   3E03           00257         addlw           0x03
00A1   00A6           00258         movwf           Tens
00A2                  00259 AfterAdding_3   
00A2   2???           00260         goto            startconversion
00A3                  00261 endBinary2BCD   
00A3   0008           00262         return
                      00263         
                      00264         
                      00265         
38F1 3FFF             00266         end
MPASM 5.68                      CONTADOR.ASM   10-4-2020  21:00:20         PAGE  7


SYMBOL TABLE
  LABEL                             VALUE 

ABDEN                             00000000
ABDOVF                            00000007
ACKDT                             00000005
ACKEN                             00000004
ACKSTAT                           00000006
ADCON0                            0000001F
ADCON1                            0000009F
ADCS0                             00000006
ADCS1                             00000007
ADDEN                             00000003
ADFM                              00000007
ADIE                              00000006
ADIF                              00000006
ADON                              00000000
ADRESH                            0000001E
ADRESL                            0000009E
ANS0                              00000000
ANS1                              00000001
ANS10                             00000002
ANS11                             00000003
ANS12                             00000004
ANS13                             00000005
ANS2                              00000002
ANS3                              00000003
ANS4                              00000004
ANS5                              00000005
ANS6                              00000006
ANS7                              00000007
ANS8                              00000000
ANS9                              00000001
ANSEL                             00000188
ANSELH                            00000189
AfterAdding3                      00000099
AfterAdding_3                     000000A2
BAUDCTL                           00000187
BCLIE                             00000003
BCLIF                             00000003
BF                                00000000
BRG0                              00000000
BRG1                              00000001
BRG10                             00000002
BRG11                             00000003
BRG12                             00000004
BRG13                             00000005
BRG14                             00000006
BRG15                             00000007
BRG16                             00000003
BRG2                              00000002
BRG3                              00000003
BRG4                              00000004
BRG5                              00000005
BRG6                              00000006
BRG7                              00000007
MPASM 5.68                      CONTADOR.ASM   10-4-2020  21:00:20         PAGE  8


SYMBOL TABLE
  LABEL                             VALUE 

BRG8                              00000000
BRG9                              00000001
BRGH                              00000002
Binary2BCD                        00000071
Boton_asc                         00000000
Boton_dsc                         00000001
C                                 00000000
C1CH0                             00000000
C1CH1                             00000001
C1IE                              00000005
C1IF                              00000005
C1OE                              00000005
C1ON                              00000007
C1OUT                             00000006
C1POL                             00000004
C1R                               00000002
C1RSEL                            00000005
C1SEN                             00000005
C2CH0                             00000000
C2CH1                             00000001
C2IE                              00000006
C2IF                              00000006
C2OE                              00000005
C2ON                              00000007
C2OUT                             00000006
C2POL                             00000004
C2R                               00000002
C2REN                             00000004
C2RSEL                            00000004
C2SYNC                            00000000
CCP1CON                           00000017
CCP1IE                            00000002
CCP1IF                            00000002
CCP1M0                            00000000
CCP1M1                            00000001
CCP1M2                            00000002
CCP1M3                            00000003
CCP1X                             00000005
CCP1Y                             00000004
CCP2CON                           0000001D
CCP2IE                            00000000
CCP2IF                            00000000
CCP2M0                            00000000
CCP2M1                            00000001
CCP2M2                            00000002
CCP2M3                            00000003
CCP2X                             00000005
CCP2Y                             00000004
CCPR1                             00000015
CCPR1H                            00000016
CCPR1L                            00000015
CCPR2                             0000001B
CCPR2H                            0000001C
MPASM 5.68                      CONTADOR.ASM   10-4-2020  21:00:20         PAGE  9


SYMBOL TABLE
  LABEL                             VALUE 

CCPR2L                            0000001B
CHS0                              00000002
CHS1                              00000003
CHS2                              00000004
CHS3                              00000005
CKE                               00000006
CKP                               00000004
CM1CON0                           00000107
CM2CON0                           00000108
CM2CON1                           00000109
CREN                              00000004
CSRC                              00000007
Contador1                         00000020
Contador2                         00000021
D                                 00000005
DATA_ADDRESS                      00000005
DC                                00000001
DC1B0                             00000004
DC1B1                             00000005
DC2B0                             00000004
DC2B1                             00000005
DELAY_20MS                        00000068
DISP_COUNTER                      00000022
DISP_DEFAULT                      00000023
DISP_FREQ                         00000024
DISP_UPDATE_TENS                  00000056
DISP_UPDATE_UNIT                  00000050
D_A                               00000005
D_NOT_A                           00000005
ECCPAS                            0000009C
ECCPAS0                           00000004
ECCPAS1                           00000005
ECCPAS2                           00000006
ECCPASE                           00000007
EEADR                             0000010D
EEADRH                            0000010F
EECON1                            0000018C
EECON2                            0000018D
EEDAT                             0000010C
EEDATA                            0000010C
EEDATH                            0000010E
EEIE                              00000004
EEIF                              00000004
EEPGD                             00000007
END_BTN_ASC                       00000042
END_BTN_DSC                       0000004F
F                                 00000001
FERR                              00000002
FSR                               00000004
FVREN                             00000000
GCEN                              00000007
GIE                               00000007
GO                                00000001
MPASM 5.68                      CONTADOR.ASM   10-4-2020  21:00:20         PAGE 10


SYMBOL TABLE
  LABEL                             VALUE 

GO_DONE                           00000001
GO_NOT_DONE                       00000001
HTS                               00000002
Hundred                           00000025
I2C_DATA                          00000005
I2C_READ                          00000002
I2C_START                         00000003
I2C_STOP                          00000004
INDF                              00000000
INIT                              00000001
INIT_COUNTER                      00000028
INIT_FREQ                         00000022
INTCON                            0000000B
INTE                              00000004
INTEDG                            00000006
INTF                              00000001
IOCB                              00000096
IOCB0                             00000000
IOCB1                             00000001
IOCB2                             00000002
IOCB3                             00000003
IOCB4                             00000004
IOCB5                             00000005
IOCB6                             00000006
IOCB7                             00000007
IRCF0                             00000004
IRCF1                             00000005
IRCF2                             00000006
IRP                               00000007
LTS                               00000001
MAIN                              00000016
MC1OUT                            00000007
MC2OUT                            00000006
MSK                               00000093
MSK0                              00000000
MSK1                              00000001
MSK2                              00000002
MSK3                              00000003
MSK4                              00000004
MSK5                              00000005
MSK6                              00000006
MSK7                              00000007
NOT_A                             00000005
NOT_ADDRESS                       00000005
NOT_BO                            00000000
NOT_BOR                           00000000
NOT_DONE                          00000001
NOT_PD                            00000003
NOT_POR                           00000001
NOT_RBPU                          00000007
NOT_RC8                           00000006
NOT_T1SYNC                        00000002
NOT_TO                            00000004
MPASM 5.68                      CONTADOR.ASM   10-4-2020  21:00:20         PAGE 11


SYMBOL TABLE
  LABEL                             VALUE 

NOT_TX8                           00000006
NOT_W                             00000002
NOT_WRITE                         00000002
OERR                              00000001
OPTION_REG                        00000081
OSCCON                            0000008F
OSCTUNE                           00000090
OSFIE                             00000007
OSFIF                             00000007
OSTS                              00000003
P                                 00000004
P1M0                              00000006
P1M1                              00000007
PCL                               00000002
PCLATH                            0000000A
PCON                              0000008E
PDC0                              00000000
PDC1                              00000001
PDC2                              00000002
PDC3                              00000003
PDC4                              00000004
PDC5                              00000005
PDC6                              00000006
PEIE                              00000006
PEN                               00000002
PIE1                              0000008C
PIE2                              0000008D
PIR1                              0000000C
PIR2                              0000000D
PORTA                             00000005
PORTB                             00000006
PORTC                             00000007
PORTD                             00000008
PORTE                             00000009
PR2                               00000092
PRSEN                             00000007
PS0                               00000000
PS1                               00000001
PS2                               00000002
PSA                               00000003
PSSAC0                            00000002
PSSAC1                            00000003
PSSBD0                            00000000
PSSBD1                            00000001
PSTRCON                           0000009D
PULSR                             00000002
PULSS                             00000003
PWM1CON                           0000009B
R                                 00000002
RA0                               00000000
RA1                               00000001
RA2                               00000002
RA3                               00000003
MPASM 5.68                      CONTADOR.ASM   10-4-2020  21:00:20         PAGE 12


SYMBOL TABLE
  LABEL                             VALUE 

RA4                               00000004
RA5                               00000005
RA6                               00000006
RA7                               00000007
RB0                               00000000
RB1                               00000001
RB2                               00000002
RB3                               00000003
RB4                               00000004
RB5                               00000005
RB6                               00000006
RB7                               00000007
RBIE                              00000003
RBIF                              00000000
RC0                               00000000
RC1                               00000001
RC2                               00000002
RC3                               00000003
RC4                               00000004
RC5                               00000005
RC6                               00000006
RC7                               00000007
RC8_9                             00000006
RC9                               00000006
RCD8                              00000000
RCEN                              00000003
RCIDL                             00000006
RCIE                              00000005
RCIF                              00000005
RCREG                             0000001A
RCSTA                             00000018
RD                                00000000
RD0                               00000000
RD1                               00000001
RD2                               00000002
RD3                               00000003
RD4                               00000004
RD5                               00000005
RD6                               00000006
RD7                               00000007
RE0                               00000000
RE1                               00000001
RE2                               00000002
RE3                               00000003
READ_WRITE                        00000002
RELEASE_BTN_ASC                   0000003C
RELEASE_BTN_DSC                   00000049
RP0                               00000005
RP1                               00000006
RSEN                              00000001
RUN                               00000019
RX9                               00000006
RX9D                              00000000
MPASM 5.68                      CONTADOR.ASM   10-4-2020  21:00:20         PAGE 13


SYMBOL TABLE
  LABEL                             VALUE 

R_NOT_W                           00000002
R_W                               00000002
Repeticion1                       0000006A
Repeticion2                       0000006C
RotateZeroIntoHun                 0000008A
RotateZeroIntoTen                 00000082
S                                 00000003
SBOREN                            00000004
SCKP                              00000004
SCS                               00000000
SEN                               00000000
SENDB                             00000003
SETTING                           0000002B
SEVENSEG_LOOKUP                   0000005C
SMP                               00000007
SPBRG                             00000099
SPBRGH                            0000009A
SPEN                              00000007
SR0                               00000006
SR1                               00000007
SRCON                             00000185
SREN                              00000005
SSPADD                            00000093
SSPBUF                            00000013
SSPCON                            00000014
SSPCON2                           00000091
SSPEN                             00000005
SSPIE                             00000003
SSPIF                             00000003
SSPM0                             00000000
SSPM1                             00000001
SSPM2                             00000002
SSPM3                             00000003
SSPMSK                            00000093
SSPOV                             00000006
SSPSTAT                           00000094
STATUS                            00000003
STRA                              00000000
STRB                              00000001
STRC                              00000002
STRD                              00000003
STRSYNC                           00000004
SWDTEN                            00000000
SYNC                              00000004
Switch_activar                    00000002
T0CS                              00000005
T0IE                              00000005
T0IF                              00000002
T0SE                              00000004
T1CKPS0                           00000004
T1CKPS1                           00000005
T1CON                             00000010
T1GINV                            00000007
MPASM 5.68                      CONTADOR.ASM   10-4-2020  21:00:20         PAGE 14


SYMBOL TABLE
  LABEL                             VALUE 

T1GIV                             00000007
T1GSS                             00000001
T1INSYNC                          00000002
T1OSCEN                           00000003
T1SYNC                            00000002
T2CKPS0                           00000000
T2CKPS1                           00000001
T2CON                             00000012
TMR0                              00000001
TMR0IE                            00000005
TMR0IF                            00000002
TMR1                              0000000E
TMR1CS                            00000001
TMR1GE                            00000006
TMR1H                             0000000F
TMR1IE                            00000000
TMR1IF                            00000000
TMR1L                             0000000E
TMR1ON                            00000000
TMR2                              00000011
TMR2IE                            00000001
TMR2IF                            00000001
TMR2ON                            00000002
TOUTPS0                           00000003
TOUTPS1                           00000004
TOUTPS2                           00000005
TOUTPS3                           00000006
TRISA                             00000085
TRISA0                            00000000
TRISA1                            00000001
TRISA2                            00000002
TRISA3                            00000003
TRISA4                            00000004
TRISA5                            00000005
TRISA6                            00000006
TRISA7                            00000007
TRISB                             00000086
TRISB0                            00000000
TRISB1                            00000001
TRISB2                            00000002
TRISB3                            00000003
TRISB4                            00000004
TRISB5                            00000005
TRISB6                            00000006
TRISB7                            00000007
TRISC                             00000087
TRISC0                            00000000
TRISC1                            00000001
TRISC2                            00000002
TRISC3                            00000003
TRISC4                            00000004
TRISC5                            00000005
TRISC6                            00000006
MPASM 5.68                      CONTADOR.ASM   10-4-2020  21:00:20         PAGE 15


SYMBOL TABLE
  LABEL                             VALUE 

TRISC7                            00000007
TRISD                             00000088
TRISD0                            00000000
TRISD1                            00000001
TRISD2                            00000002
TRISD3                            00000003
TRISD4                            00000004
TRISD5                            00000005
TRISD6                            00000006
TRISD7                            00000007
TRISE                             00000089
TRISE0                            00000000
TRISE1                            00000001
TRISE2                            00000002
TRISE3                            00000003
TRMT                              00000001
TUN0                              00000000
TUN1                              00000001
TUN2                              00000002
TUN3                              00000003
TUN4                              00000004
TX8_9                             00000006
TX9                               00000006
TX9D                              00000000
TXD8                              00000000
TXEN                              00000005
TXIE                              00000004
TXIF                              00000004
TXREG                             00000019
TXSTA                             00000098
Tens                              00000026
UA                                00000001
ULPWUE                            00000005
ULPWUIE                           00000002
ULPWUIF                           00000002
UPDATE_BTN_ASC                    00000036
UPDATE_BTN_DSC                    00000043
Units                             00000027
VCFG0                             00000004
VCFG1                             00000005
VR0                               00000000
VR1                               00000001
VR2                               00000002
VR3                               00000003
VRCON                             00000097
VREN                              00000007
VROE                              00000006
VRR                               00000005
VRSS                              00000004
W                                 00000000
WCOL                              00000007
WDTCON                            00000105
WDTPS0                            00000001
MPASM 5.68                      CONTADOR.ASM   10-4-2020  21:00:20         PAGE 16


SYMBOL TABLE
  LABEL                             VALUE 

WDTPS1                            00000002
WDTPS2                            00000003
WDTPS3                            00000004
WPUB                              00000095
WPUB0                             00000000
WPUB1                             00000001
WPUB2                             00000002
WPUB3                             00000003
WPUB4                             00000004
WPUB5                             00000005
WPUB6                             00000006
WPUB7                             00000007
WR                                00000001
WREN                              00000002
WRERR                             00000003
WUE                               00000001
Z                                 00000002
_BOR21V                           00003EFF
_BOR40V                           00003FFF
_BOR4V_BOR21V                     00003EFF
_BOR4V_BOR40V                     00003FFF
_BOREN_NSLEEP                     00003EFF
_BOREN_OFF                        00003CFF
_BOREN_ON                         00003FFF
_BOREN_SBODEN                     00003DFF
_BOR_NSLEEP                       00003EFF
_BOR_OFF                          00003CFF
_BOR_ON                           00003FFF
_BOR_SBODEN                       00003DFF
_CONFIG1                          00002007
_CONFIG2                          00002008
_CPD_OFF                          00003FFF
_CPD_ON                           00003F7F
_CP_OFF                           00003FFF
_CP_ON                            00003FBF
_DEBUG_OFF                        00003FFF
_DEBUG_ON                         00001FFF
_DEVID1                           00002006
_EC_OSC                           00003FFB
_EXTRC                            00003FFF
_EXTRCIO                          00003FFE
_EXTRC_OSC_CLKOUT                 00003FFF
_EXTRC_OSC_NOCLKOUT               00003FFE
_FCMEN_OFF                        000037FF
_FCMEN_ON                         00003FFF
_FOSC_EC                          00003FFB
_FOSC_EXTRC_CLKOUT                00003FFF
_FOSC_EXTRC_NOCLKOUT              00003FFE
_FOSC_HS                          00003FFA
_FOSC_INTRC_CLKOUT                00003FFD
_FOSC_INTRC_NOCLKOUT              00003FFC
_FOSC_LP                          00003FF8
_FOSC_XT                          00003FF9
MPASM 5.68                      CONTADOR.ASM   10-4-2020  21:00:20         PAGE 17


SYMBOL TABLE
  LABEL                             VALUE 

_HS_OSC                           00003FFA
_IDLOC0                           00002000
_IDLOC1                           00002001
_IDLOC2                           00002002
_IDLOC3                           00002003
_IESO_OFF                         00003BFF
_IESO_ON                          00003FFF
_INTOSC                           00003FFD
_INTOSCIO                         00003FFC
_INTRC_OSC_CLKOUT                 00003FFD
_INTRC_OSC_NOCLKOUT               00003FFC
_LP_OSC                           00003FF8
_LVP_OFF                          00002FFF
_LVP_ON                           00003FFF
_MCLRE_OFF                        00003FDF
_MCLRE_ON                         00003FFF
_PWRTE_OFF                        00003FFF
_PWRTE_ON                         00003FEF
_WDTE_OFF                         00003FF7
_WDTE_ON                          00003FFF
_WDT_OFF                          00003FF7
_WDT_ON                           00003FFF
_WRT_1FOURTH                      00003BFF
_WRT_256                          00003DFF
_WRT_HALF                         000039FF
_WRT_OFF                          00003FFF
_XT_OSC                           00003FF9
__16F887                          00000001
__DEBUG                           
__MPLAB_DEBUGGER_SIMULATOR        1
bin                               00000028
completeTenCarry                  0000008C
completeUnitCarry                 00000084
continue                          00000090
count8                            00000029
endBinary2BCD                     000000A3
startconversion                   0000007A
temp                              0000002A

Errors   :     0
Warnings :     0 reported,     0 suppressed
Messages :     6 reported,     0 suppressed

