MPASM 5.68                ADCPOLLING8BIT.ASM   10-15-2020  10:44:55         PAGE  1


LOC  OBJECT CODE     LINE SOURCE TEXT
  VALUE

                      00001 ; CONFIG1
                      00002 ; __config 0xF8F1
2007   38F1           00003  __CONFIG _CONFIG1, _FOSC_XT & _WDTE_OFF & _PWRTE_OFF & _MCLRE_ON & _CP_OFF & _CPD_OFF & _BOREN_OFF & _I
                            ESO_OFF & _FCMEN_ON & _LVP_ON
                      00004 ; CONFIG2
                      00005 ; __config 0xFFFF
2008   3FFF           00006  __CONFIG _CONFIG2, _BOR4V_BOR40V & _WRT_OFF
                      00007     
                      00008     
                      00009     LIST p=16F887
                      00010     INCLUDE <P16F887.INC>
                      00001         LIST
                      00002 
                      00003 ;==========================================================================
                      00004 ; Build date : May 15 2016
                      00005 ;  MPASM PIC16F887 processor include
                      00006 ; 
                      00007 ;  (c) Copyright 1999-2016 Microchip Technology, All rights reserved
                      00008 ;==========================================================================
                      00009 
                      00810         LIST
                      00011 
                      00012 ; NOTA:
                      00013 ; Oscilador utilizado 4MHz.-
                      00014 ; ************************************************
                      00015 
  00000000            00016 EN_D0   EQU     0       ; Definimos Led como RE0
  00000001            00017 EN_D1   EQU     1       ; Definimos Led como RE1
                      00018     
  00000020            00019 RESULTHI        equ     0x20    ; Registro para guardar Byte alto de la conversion.-
  00000021            00020 RESULTLO        equ     0x21    ; Regsitro para guardar Byte bajo de la conversion.-
  00000022            00021 Contador        equ     0x22    ; registro utilizado en demora.-
  00000023            00022 Contador1       equ 0x23
  00000024            00023 Contador2       equ 0x24
                      00024         
  00000025            00025 Hundred equ 0x25
  00000026            00026 Tens    equ 0x26
  00000027            00027 Units   equ 0x27        
  00000028            00028 bin     equ 0x28
  00000029            00029 count8  equ 0x29
  0000002A            00030 temp    equ 0x2A
                      00031         
                      00032         
                      00033 ; ************************************************
                      00034         org     0x00
0000   2???           00035         goto INIT
                      00036  ;**** Configurar el puerto****
0001                  00037 INIT
0001   1683           00038         BSF     STATUS,RP0      ; Banco 1 -- BANKSEL ADCON1
0002   3000           00039         MOVLW   B'00000000'     ; Justificado a la izquierda, VDD, VSS.-
Message[302]: Register in operand not in bank 0.  Ensure that bank bits are correct.
0003   009F           00040         MOVWF   ADCON1          ;Vdd and Vss as Vref
Message[302]: Register in operand not in bank 0.  Ensure that bank bits are correct.
MPASM 5.68                ADCPOLLING8BIT.ASM   10-15-2020  10:44:55         PAGE  2


LOC  OBJECT CODE     LINE SOURCE TEXT
  VALUE

0004   1405           00041         BSF     TRISA,0         ;Set RA0 to input
Message[302]: Register in operand not in bank 0.  Ensure that bank bits are correct.
0005   0189           00042         CLRF    TRISE           ;Set PORTE to output
Message[302]: Register in operand not in bank 0.  Ensure that bank bits are correct.
0006   0186           00043         CLRF    TRISB           ;Set PORTB to output
Message[302]: Register in operand not in bank 0.  Ensure that bank bits are correct.
0007   0188           00044         CLRF    TRISD           ;Set PORTD to output
0008   1283           00045         BCF     STATUS,RP0      ; Banco 0  -- BANKSEL PORTE, ADCON0  ;
0009   3041           00046         MOVLW   B'01000001'     ;Fosc/8, Canal 0, módulo habilitado.
000A   009F           00047         MOVWF   ADCON0          ;AN0, On
000B   0189           00048         CLRF    PORTE
000C   0186           00049         CLRF    PORTB
000D   0188           00050         CLRF    PORTD
000E   1683 1703      00051         BANKSEL ANSEL           ;
Message[302]: Register in operand not in bank 0.  Ensure that bank bits are correct.
0010   1408           00052         BSF     ANSEL,0         ;Set RA0 to analog
Message[302]: Register in operand not in bank 0.  Ensure that bank bits are correct.
0011   1388           00053         BCF     ANSEL,7         ;Set RA7 to digital
Message[302]: Register in operand not in bank 0.  Ensure that bank bits are correct.
0012   0189           00054         CLRF    ANSELH
                      00055 
0013   3019           00056         MOVLW d'25'
0014   00AA           00057         MOVWF temp
0015   3019           00058         MOVLW d'25'
0016   022A           00059         SUBWF temp,0
                      00060         
                      00061         
0017   3097           00062         MOVLW B'10010111'
0018   00AA           00063         MOVWF temp
0019   2???           00064         CALL CONVERT
001A   00A0           00065         MOVWF RESULTHI
001B   2???           00066         GOTO RUN
                      00067         
001C                  00068 RUN_ADC
001C   1283 1303      00069         BANKSEL ADCON0
001E   2???           00070         CALL SampleTime         ; Demora de adquision.-
001F   149F           00071         BSF ADCON0,GO           ;Start conversion
                      00072 
0020                  00073 WAIT_ACQ
0020   189F           00074         BTFSC   ADCON0,GO       ; Espera a que termine conversion.-
0021   2???           00075         GOTO    WAIT_ACQ
0022   081E           00076         MOVF    ADRESH,W        ; Movemos resultado de la conversion.-
0023   00A0           00077         MOVWF   RESULTHI
0024   0086           00078         MOVWF   PORTB
0025   141F           00079         BSF     ADCON0,ADON     ; Apago modulo de conversion.-
                      00080         ;MOVF   RESULTHI,0
0026   00AA           00081         MOVWF   temp
0027   2???           00082         CALL    CONVERT
0028   00A0           00083         MOVWF   RESULTHI
0029   2???           00084         GOTO    RUN
                      00085 
002A                  00086 SHOW
002A   1283           00087         BCF     STATUS,RP0
MPASM 5.68                ADCPOLLING8BIT.ASM   10-15-2020  10:44:55         PAGE  3


LOC  OBJECT CODE     LINE SOURCE TEXT
  VALUE

002B   1303           00088         BCF     STATUS,RP1
002C   1820           00089         BTFSC RESULTHI,0
002D   2???           00090         GOTO setl8
002E   1109           00091         BCF PORTE,2
002F   2???           00092         GOTO show_L9
0030                  00093 setl8   
0030   1509           00094         BSF PORTE,2
0031                  00095 show_L9 
0031   18A0           00096         BTFSC RESULTHI,1
0032   2???           00097         GOTO setl9
0033   1388           00098         BCF PORTD,7
0034   2???           00099         GOTO fin_show
0035                  00100 setl9   
0035   1788           00101         BSF PORTD,7
0036                  00102 fin_show        
0036   0008           00103         RETURN
                      00104         
                      00105 ;**** Demora ****
0037                  00106 SampleTime
0037   3005           00107         MOVLW   0x05 ;
0038   00A2           00108         MOVWF   Contador ; Iniciamos contador1.-
0039                  00109 Repeticion
0039   0BA2           00110         DECFSZ  Contador,1 ; Decrementa Contador1.-
003A   2???           00111         GOTO    Repeticion ; Si no es cero repetimos ciclo.-
003B   0008           00112         RETURN 
                      00113         
003C                  00114 RUN
003C   0820           00115         MOVF RESULTHI,0
003D   00A8           00116         MOVWF bin ; 0x20
003E   2???           00117         CALL Binary2BCD ; tens = 3 unit = 2
003F   2???           00118         CALL DISP_UPDATE_UNIT ; 2
0040   2???           00119         CALL DELAY_20MS
0041   2???           00120         CALL DISP_UPDATE_TENS; 3
0042   2???           00121         CALL DELAY_20MS
0043   2???           00122         GOTO RUN_ADC
                      00123         
0044                  00124 CONVERT
0044   0CAA           00125         RRF temp,1
0045   1003           00126         BCF STATUS,0
0046   0CAA           00127         RRF temp,1
0047   1003           00128         BCF STATUS,0
0048   0CAA           00129         RRF temp,1
0049   1003           00130         BCF STATUS,0
004A   082A           00131         MOVF temp,0
004B   0CAA           00132         RRF temp,1
004C   1003           00133         BCF STATUS,0
004D   072A           00134         ADDWF temp,0
004E   0CAA           00135         RRF temp,1
004F   1003           00136         BCF STATUS,0
0050   0CAA           00137         RRF temp,1
0051   1003           00138         BCF STATUS,0
0052   0CAA           00139         RRF temp,1
0053   1003           00140         BCF STATUS,0
MPASM 5.68                ADCPOLLING8BIT.ASM   10-15-2020  10:44:55         PAGE  4


LOC  OBJECT CODE     LINE SOURCE TEXT
  VALUE

0054   072A           00141         ADDWF temp,0
0055   0008           00142         RETURN
                      00143         
                      00144 ;--------------------------------------------------------------------------
                      00145 ; DISPLAY 7 SEGMENTS
                      00146 ;--------------------------------------------------------------------------     
0056                  00147 DISP_UPDATE_UNIT
0056   1089           00148         BCF PORTE,EN_D1 ;TURN OFF DIGIT 2.
0057   0827           00149         MOVF Units,0
0058   2???           00150         CALL SEVENSEG_LOOKUP
                      00151         ; para anodo comun complemento (1 -> 0, 0 -> 1)
0059   0088           00152         MOVWF PORTD ;PUT DATA ON PORTB.
005A   1409           00153         BSF PORTE,EN_D0 ;TURN ON DIGIT 1.
005B   0008           00154         RETURN
                      00155         
005C                  00156 DISP_UPDATE_TENS
005C   1009           00157         BCF PORTE,EN_D0 ;TURN OFF DIGIT 1.
005D   0826           00158         MOVF Tens,0
005E   2???           00159         CALL SEVENSEG_LOOKUP
                      00160         ;para anodo comun complemento (1 -> 0, 0 -> 1)
005F   0088           00161         MOVWF PORTD ;PUT DATA ON PORTB.
0060   1489           00162         BSF PORTE,EN_D1 ;TURN ON DIGIT 2.
0061   0008           00163         RETURN
                      00164 ;--------------------------------------------------------------------------
                      00165 ; NUMBERIC LOOKUP TABLE FOR 7 SEG
                      00166 ;--------------------------------------------------------------------------
0062                  00167 SEVENSEG_LOOKUP 
0062   0782           00168         ADDWF PCL,f
0063   343F           00169         RETLW 3Fh ; //Hex value to display the number 0. 0x40
0064   3406           00170         RETLW 06h ; //Hex value to display the number 1. 0x79
0065   345B           00171         RETLW 5Bh ; //Hex value to display the number 2.
0066   344F           00172         RETLW 4Fh ; //Hex value to display the number 3.
0067   3466           00173         RETLW 66h ; //Hex value to display the number 4.
0068   346D           00174         RETLW 6Dh ; //Hex value to display the number 5.
0069   347C           00175         RETLW 7Ch ; //Hex value to display the number 6.
006A   3407           00176         RETLW 07h ; //Hex value to display the number 7.
006B   347F           00177         RETLW 7Fh ; //Hex value to display the number 8.
006C   346F           00178         RETLW 6Fh ; //Hex value to display the number 9.
006D   0008           00179         RETURN
                      00180 ;--------------------------------------------------------------------------
                      00181 ; DELAY 20 MILLISECONDS
                      00182 ;--------------------------------------------------------------------------
006E                  00183 DELAY_20MS
006E   30FF           00184         movlw   0xFF                    ;
006F   00A3           00185         movwf   Contador1               ; Iniciamos contador1.-
0070                  00186 Repeticion1
0070   3019           00187         movlw   0x19                    ;
0071   00A4           00188         movwf   Contador2               ; Iniciamos contador2
0072                  00189 Repeticion2
0072   0BA4           00190         decfsz  Contador2,1             ; Decrementa Contador2 y si es 0 sale.-
0073   2???           00191         goto    Repeticion2             ; Si no es 0 repetimos ciclo.-
0074   0BA3           00192         decfsz  Contador1,1             ; Decrementa Contador1.-
0075   2???           00193         goto    Repeticion1             ; Si no es cero repetimos ciclo.-
MPASM 5.68                ADCPOLLING8BIT.ASM   10-15-2020  10:44:55         PAGE  5


LOC  OBJECT CODE     LINE SOURCE TEXT
  VALUE

0076   0008           00194         return                          ; Regresa de la subrutina.-
                      00195 
                      00196 ;--------------------------------------------------------------------------
                      00197 ; CONVERTER BINARY TO BCD
                      00198 ;--------------------------------------------------------------------------
0077                  00199 Binary2BCD
0077   01A5           00200         clrf            Hundred
0078   01A6           00201         clrf            Tens
0079   01A7           00202         clrf            Units
007A   3008           00203         movlw           0x08
007B   00A9           00204         movwf           count8
                      00205         ; check if bin is zero  
007C   3000           00206         movlw           0x00
007D   07A8           00207         addwf           bin, f
007E   1903           00208         btfsc           STATUS, Z
007F   2???           00209         goto            endBinary2BCD
0080                  00210 startconversion 
                      00211         ; rotate MSB from bin into Units
0080   1003           00212         bcf             STATUS, C
0081   0DA8           00213         rlf             bin, f
0082   0DA7           00214         rlf             Units, f
                      00215         ; check if a carry happened to 5th bit of Units 
                      00216         ; helps to move the carry from nibble to a different byte
0083   1E27           00217         btfss           Units, 0x04
0084   2???           00218         goto            RotateZeroIntoTen
0085   1403           00219         bsf             STATUS, C
0086   0DA6           00220         rlf             Tens, f
0087   2???           00221         goto            completeUnitCarry       
0088                  00222 RotateZeroIntoTen
0088   1003           00223         bcf             STATUS, C
0089   0DA6           00224         rlf             Tens, f
008A                  00225 completeUnitCarry       
008A   1227           00226         bcf             Units, 0x04
                      00227         ; check if a carry happend to the 5th bit of Tens
                      00228         ; helps to move the carry from nibble to a different byte
008B   1E26           00229         btfss           Tens, 0x04
008C   2???           00230         goto            RotateZeroIntoHun
008D   1403           00231         bsf             STATUS, C
008E   0DA5           00232         rlf             Hundred, f
008F   2???           00233         goto            completeTenCarry        
0090                  00234 RotateZeroIntoHun
0090   1003           00235         bcf             STATUS, C
0091   0DA5           00236         rlf             Hundred, f
0092                  00237 completeTenCarry        
0092   1226           00238         bcf             Tens, 0x04
0093   0BA9           00239         decfsz          count8,f
0094   2???           00240         goto            continue
0095   2???           00241         goto            endBinary2BCD
0096                  00242 continue
                      00243         ; check if you need to add 3 to Units if it is greater or equal to 5
0096   0827           00244         movf            Units, w
0097   00AA           00245         movwf           temp
0098   3005           00246         movlw           0x05
MPASM 5.68                ADCPOLLING8BIT.ASM   10-15-2020  10:44:55         PAGE  6


LOC  OBJECT CODE     LINE SOURCE TEXT
  VALUE

0099   02AA           00247         subwf           temp, f
009A   1C03           00248         btfss           STATUS, C
009B   2???           00249         goto            AfterAdding3
009C   0827           00250         movf            Units, w
009D   3E03           00251         addlw           0x03
009E   00A7           00252         movwf           Units
009F                  00253 AfterAdding3    
                      00254         ; check if you need to add 3 to Tens if it is greater or equal to 5
009F   0826           00255         movf            Tens, w
00A0   00AA           00256         movwf           temp
00A1   3005           00257         movlw           0x05
00A2   02AA           00258         subwf           temp, f
00A3   1C03           00259         btfss           STATUS, C
00A4   2???           00260         goto            AfterAdding_3
00A5   0826           00261         movf            Tens, w
00A6   3E03           00262         addlw           0x03
00A7   00A6           00263         movwf           Tens
00A8                  00264 AfterAdding_3   
00A8   2???           00265         goto            startconversion
00A9                  00266 endBinary2BCD   
00A9   0008           00267         return
                      00268 
                      00269         
38F1 3FFF             00270         end
MPASM 5.68                ADCPOLLING8BIT.ASM   10-15-2020  10:44:55         PAGE  7


SYMBOL TABLE
  LABEL                             VALUE 

ABDEN                             00000000
ABDOVF                            00000007
ACKDT                             00000005
ACKEN                             00000004
ACKSTAT                           00000006
ADCON0                            0000001F
ADCON1                            0000009F
ADCS0                             00000006
ADCS1                             00000007
ADDEN                             00000003
ADFM                              00000007
ADIE                              00000006
ADIF                              00000006
ADON                              00000000
ADRESH                            0000001E
ADRESL                            0000009E
ANS0                              00000000
ANS1                              00000001
ANS10                             00000002
ANS11                             00000003
ANS12                             00000004
ANS13                             00000005
ANS2                              00000002
ANS3                              00000003
ANS4                              00000004
ANS5                              00000005
ANS6                              00000006
ANS7                              00000007
ANS8                              00000000
ANS9                              00000001
ANSEL                             00000188
ANSELH                            00000189
AfterAdding3                      0000009F
AfterAdding_3                     000000A8
BAUDCTL                           00000187
BCLIE                             00000003
BCLIF                             00000003
BF                                00000000
BRG0                              00000000
BRG1                              00000001
BRG10                             00000002
BRG11                             00000003
BRG12                             00000004
BRG13                             00000005
BRG14                             00000006
BRG15                             00000007
BRG16                             00000003
BRG2                              00000002
BRG3                              00000003
BRG4                              00000004
BRG5                              00000005
BRG6                              00000006
BRG7                              00000007
MPASM 5.68                ADCPOLLING8BIT.ASM   10-15-2020  10:44:55         PAGE  8


SYMBOL TABLE
  LABEL                             VALUE 

BRG8                              00000000
BRG9                              00000001
BRGH                              00000002
Binary2BCD                        00000077
C                                 00000000
C1CH0                             00000000
C1CH1                             00000001
C1IE                              00000005
C1IF                              00000005
C1OE                              00000005
C1ON                              00000007
C1OUT                             00000006
C1POL                             00000004
C1R                               00000002
C1RSEL                            00000005
C1SEN                             00000005
C2CH0                             00000000
C2CH1                             00000001
C2IE                              00000006
C2IF                              00000006
C2OE                              00000005
C2ON                              00000007
C2OUT                             00000006
C2POL                             00000004
C2R                               00000002
C2REN                             00000004
C2RSEL                            00000004
C2SYNC                            00000000
CCP1CON                           00000017
CCP1IE                            00000002
CCP1IF                            00000002
CCP1M0                            00000000
CCP1M1                            00000001
CCP1M2                            00000002
CCP1M3                            00000003
CCP1X                             00000005
CCP1Y                             00000004
CCP2CON                           0000001D
CCP2IE                            00000000
CCP2IF                            00000000
CCP2M0                            00000000
CCP2M1                            00000001
CCP2M2                            00000002
CCP2M3                            00000003
CCP2X                             00000005
CCP2Y                             00000004
CCPR1                             00000015
CCPR1H                            00000016
CCPR1L                            00000015
CCPR2                             0000001B
CCPR2H                            0000001C
CCPR2L                            0000001B
CHS0                              00000002
MPASM 5.68                ADCPOLLING8BIT.ASM   10-15-2020  10:44:55         PAGE  9


SYMBOL TABLE
  LABEL                             VALUE 

CHS1                              00000003
CHS2                              00000004
CHS3                              00000005
CKE                               00000006
CKP                               00000004
CM1CON0                           00000107
CM2CON0                           00000108
CM2CON1                           00000109
CONVERT                           00000044
CREN                              00000004
CSRC                              00000007
Contador                          00000022
Contador1                         00000023
Contador2                         00000024
D                                 00000005
DATA_ADDRESS                      00000005
DC                                00000001
DC1B0                             00000004
DC1B1                             00000005
DC2B0                             00000004
DC2B1                             00000005
DELAY_20MS                        0000006E
DISP_UPDATE_TENS                  0000005C
DISP_UPDATE_UNIT                  00000056
D_A                               00000005
D_NOT_A                           00000005
ECCPAS                            0000009C
ECCPAS0                           00000004
ECCPAS1                           00000005
ECCPAS2                           00000006
ECCPASE                           00000007
EEADR                             0000010D
EEADRH                            0000010F
EECON1                            0000018C
EECON2                            0000018D
EEDAT                             0000010C
EEDATA                            0000010C
EEDATH                            0000010E
EEIE                              00000004
EEIF                              00000004
EEPGD                             00000007
EN_D0                             00000000
EN_D1                             00000001
F                                 00000001
FERR                              00000002
FSR                               00000004
FVREN                             00000000
GCEN                              00000007
GIE                               00000007
GO                                00000001
GO_DONE                           00000001
GO_NOT_DONE                       00000001
HTS                               00000002
MPASM 5.68                ADCPOLLING8BIT.ASM   10-15-2020  10:44:55         PAGE 10


SYMBOL TABLE
  LABEL                             VALUE 

Hundred                           00000025
I2C_DATA                          00000005
I2C_READ                          00000002
I2C_START                         00000003
I2C_STOP                          00000004
INDF                              00000000
INIT                              00000001
INTCON                            0000000B
INTE                              00000004
INTEDG                            00000006
INTF                              00000001
IOCB                              00000096
IOCB0                             00000000
IOCB1                             00000001
IOCB2                             00000002
IOCB3                             00000003
IOCB4                             00000004
IOCB5                             00000005
IOCB6                             00000006
IOCB7                             00000007
IRCF0                             00000004
IRCF1                             00000005
IRCF2                             00000006
IRP                               00000007
LTS                               00000001
MC1OUT                            00000007
MC2OUT                            00000006
MSK                               00000093
MSK0                              00000000
MSK1                              00000001
MSK2                              00000002
MSK3                              00000003
MSK4                              00000004
MSK5                              00000005
MSK6                              00000006
MSK7                              00000007
NOT_A                             00000005
NOT_ADDRESS                       00000005
NOT_BO                            00000000
NOT_BOR                           00000000
NOT_DONE                          00000001
NOT_PD                            00000003
NOT_POR                           00000001
NOT_RBPU                          00000007
NOT_RC8                           00000006
NOT_T1SYNC                        00000002
NOT_TO                            00000004
NOT_TX8                           00000006
NOT_W                             00000002
NOT_WRITE                         00000002
OERR                              00000001
OPTION_REG                        00000081
OSCCON                            0000008F
MPASM 5.68                ADCPOLLING8BIT.ASM   10-15-2020  10:44:55         PAGE 11


SYMBOL TABLE
  LABEL                             VALUE 

OSCTUNE                           00000090
OSFIE                             00000007
OSFIF                             00000007
OSTS                              00000003
P                                 00000004
P1M0                              00000006
P1M1                              00000007
PCL                               00000002
PCLATH                            0000000A
PCON                              0000008E
PDC0                              00000000
PDC1                              00000001
PDC2                              00000002
PDC3                              00000003
PDC4                              00000004
PDC5                              00000005
PDC6                              00000006
PEIE                              00000006
PEN                               00000002
PIE1                              0000008C
PIE2                              0000008D
PIR1                              0000000C
PIR2                              0000000D
PORTA                             00000005
PORTB                             00000006
PORTC                             00000007
PORTD                             00000008
PORTE                             00000009
PR2                               00000092
PRSEN                             00000007
PS0                               00000000
PS1                               00000001
PS2                               00000002
PSA                               00000003
PSSAC0                            00000002
PSSAC1                            00000003
PSSBD0                            00000000
PSSBD1                            00000001
PSTRCON                           0000009D
PULSR                             00000002
PULSS                             00000003
PWM1CON                           0000009B
R                                 00000002
RA0                               00000000
RA1                               00000001
RA2                               00000002
RA3                               00000003
RA4                               00000004
RA5                               00000005
RA6                               00000006
RA7                               00000007
RB0                               00000000
RB1                               00000001
MPASM 5.68                ADCPOLLING8BIT.ASM   10-15-2020  10:44:55         PAGE 12


SYMBOL TABLE
  LABEL                             VALUE 

RB2                               00000002
RB3                               00000003
RB4                               00000004
RB5                               00000005
RB6                               00000006
RB7                               00000007
RBIE                              00000003
RBIF                              00000000
RC0                               00000000
RC1                               00000001
RC2                               00000002
RC3                               00000003
RC4                               00000004
RC5                               00000005
RC6                               00000006
RC7                               00000007
RC8_9                             00000006
RC9                               00000006
RCD8                              00000000
RCEN                              00000003
RCIDL                             00000006
RCIE                              00000005
RCIF                              00000005
RCREG                             0000001A
RCSTA                             00000018
RD                                00000000
RD0                               00000000
RD1                               00000001
RD2                               00000002
RD3                               00000003
RD4                               00000004
RD5                               00000005
RD6                               00000006
RD7                               00000007
RE0                               00000000
RE1                               00000001
RE2                               00000002
RE3                               00000003
READ_WRITE                        00000002
RESULTHI                          00000020
RESULTLO                          00000021
RP0                               00000005
RP1                               00000006
RSEN                              00000001
RUN                               0000003C
RUN_ADC                           0000001C
RX9                               00000006
RX9D                              00000000
R_NOT_W                           00000002
R_W                               00000002
Repeticion                        00000039
Repeticion1                       00000070
Repeticion2                       00000072
MPASM 5.68                ADCPOLLING8BIT.ASM   10-15-2020  10:44:55         PAGE 13


SYMBOL TABLE
  LABEL                             VALUE 

RotateZeroIntoHun                 00000090
RotateZeroIntoTen                 00000088
S                                 00000003
SBOREN                            00000004
SCKP                              00000004
SCS                               00000000
SEN                               00000000
SENDB                             00000003
SEVENSEG_LOOKUP                   00000062
SHOW                              0000002A
SMP                               00000007
SPBRG                             00000099
SPBRGH                            0000009A
SPEN                              00000007
SR0                               00000006
SR1                               00000007
SRCON                             00000185
SREN                              00000005
SSPADD                            00000093
SSPBUF                            00000013
SSPCON                            00000014
SSPCON2                           00000091
SSPEN                             00000005
SSPIE                             00000003
SSPIF                             00000003
SSPM0                             00000000
SSPM1                             00000001
SSPM2                             00000002
SSPM3                             00000003
SSPMSK                            00000093
SSPOV                             00000006
SSPSTAT                           00000094
STATUS                            00000003
STRA                              00000000
STRB                              00000001
STRC                              00000002
STRD                              00000003
STRSYNC                           00000004
SWDTEN                            00000000
SYNC                              00000004
SampleTime                        00000037
T0CS                              00000005
T0IE                              00000005
T0IF                              00000002
T0SE                              00000004
T1CKPS0                           00000004
T1CKPS1                           00000005
T1CON                             00000010
T1GINV                            00000007
T1GIV                             00000007
T1GSS                             00000001
T1INSYNC                          00000002
T1OSCEN                           00000003
MPASM 5.68                ADCPOLLING8BIT.ASM   10-15-2020  10:44:55         PAGE 14


SYMBOL TABLE
  LABEL                             VALUE 

T1SYNC                            00000002
T2CKPS0                           00000000
T2CKPS1                           00000001
T2CON                             00000012
TMR0                              00000001
TMR0IE                            00000005
TMR0IF                            00000002
TMR1                              0000000E
TMR1CS                            00000001
TMR1GE                            00000006
TMR1H                             0000000F
TMR1IE                            00000000
TMR1IF                            00000000
TMR1L                             0000000E
TMR1ON                            00000000
TMR2                              00000011
TMR2IE                            00000001
TMR2IF                            00000001
TMR2ON                            00000002
TOUTPS0                           00000003
TOUTPS1                           00000004
TOUTPS2                           00000005
TOUTPS3                           00000006
TRISA                             00000085
TRISA0                            00000000
TRISA1                            00000001
TRISA2                            00000002
TRISA3                            00000003
TRISA4                            00000004
TRISA5                            00000005
TRISA6                            00000006
TRISA7                            00000007
TRISB                             00000086
TRISB0                            00000000
TRISB1                            00000001
TRISB2                            00000002
TRISB3                            00000003
TRISB4                            00000004
TRISB5                            00000005
TRISB6                            00000006
TRISB7                            00000007
TRISC                             00000087
TRISC0                            00000000
TRISC1                            00000001
TRISC2                            00000002
TRISC3                            00000003
TRISC4                            00000004
TRISC5                            00000005
TRISC6                            00000006
TRISC7                            00000007
TRISD                             00000088
TRISD0                            00000000
TRISD1                            00000001
MPASM 5.68                ADCPOLLING8BIT.ASM   10-15-2020  10:44:55         PAGE 15


SYMBOL TABLE
  LABEL                             VALUE 

TRISD2                            00000002
TRISD3                            00000003
TRISD4                            00000004
TRISD5                            00000005
TRISD6                            00000006
TRISD7                            00000007
TRISE                             00000089
TRISE0                            00000000
TRISE1                            00000001
TRISE2                            00000002
TRISE3                            00000003
TRMT                              00000001
TUN0                              00000000
TUN1                              00000001
TUN2                              00000002
TUN3                              00000003
TUN4                              00000004
TX8_9                             00000006
TX9                               00000006
TX9D                              00000000
TXD8                              00000000
TXEN                              00000005
TXIE                              00000004
TXIF                              00000004
TXREG                             00000019
TXSTA                             00000098
Tens                              00000026
UA                                00000001
ULPWUE                            00000005
ULPWUIE                           00000002
ULPWUIF                           00000002
Units                             00000027
VCFG0                             00000004
VCFG1                             00000005
VR0                               00000000
VR1                               00000001
VR2                               00000002
VR3                               00000003
VRCON                             00000097
VREN                              00000007
VROE                              00000006
VRR                               00000005
VRSS                              00000004
W                                 00000000
WAIT_ACQ                          00000020
WCOL                              00000007
WDTCON                            00000105
WDTPS0                            00000001
WDTPS1                            00000002
WDTPS2                            00000003
WDTPS3                            00000004
WPUB                              00000095
WPUB0                             00000000
MPASM 5.68                ADCPOLLING8BIT.ASM   10-15-2020  10:44:55         PAGE 16


SYMBOL TABLE
  LABEL                             VALUE 

WPUB1                             00000001
WPUB2                             00000002
WPUB3                             00000003
WPUB4                             00000004
WPUB5                             00000005
WPUB6                             00000006
WPUB7                             00000007
WR                                00000001
WREN                              00000002
WRERR                             00000003
WUE                               00000001
Z                                 00000002
_BOR21V                           00003EFF
_BOR40V                           00003FFF
_BOR4V_BOR21V                     00003EFF
_BOR4V_BOR40V                     00003FFF
_BOREN_NSLEEP                     00003EFF
_BOREN_OFF                        00003CFF
_BOREN_ON                         00003FFF
_BOREN_SBODEN                     00003DFF
_BOR_NSLEEP                       00003EFF
_BOR_OFF                          00003CFF
_BOR_ON                           00003FFF
_BOR_SBODEN                       00003DFF
_CONFIG1                          00002007
_CONFIG2                          00002008
_CPD_OFF                          00003FFF
_CPD_ON                           00003F7F
_CP_OFF                           00003FFF
_CP_ON                            00003FBF
_DEBUG_OFF                        00003FFF
_DEBUG_ON                         00001FFF
_DEVID1                           00002006
_EC_OSC                           00003FFB
_EXTRC                            00003FFF
_EXTRCIO                          00003FFE
_EXTRC_OSC_CLKOUT                 00003FFF
_EXTRC_OSC_NOCLKOUT               00003FFE
_FCMEN_OFF                        000037FF
_FCMEN_ON                         00003FFF
_FOSC_EC                          00003FFB
_FOSC_EXTRC_CLKOUT                00003FFF
_FOSC_EXTRC_NOCLKOUT              00003FFE
_FOSC_HS                          00003FFA
_FOSC_INTRC_CLKOUT                00003FFD
_FOSC_INTRC_NOCLKOUT              00003FFC
_FOSC_LP                          00003FF8
_FOSC_XT                          00003FF9
_HS_OSC                           00003FFA
_IDLOC0                           00002000
_IDLOC1                           00002001
_IDLOC2                           00002002
_IDLOC3                           00002003
MPASM 5.68                ADCPOLLING8BIT.ASM   10-15-2020  10:44:55         PAGE 17


SYMBOL TABLE
  LABEL                             VALUE 

_IESO_OFF                         00003BFF
_IESO_ON                          00003FFF
_INTOSC                           00003FFD
_INTOSCIO                         00003FFC
_INTRC_OSC_CLKOUT                 00003FFD
_INTRC_OSC_NOCLKOUT               00003FFC
_LP_OSC                           00003FF8
_LVP_OFF                          00002FFF
_LVP_ON                           00003FFF
_MCLRE_OFF                        00003FDF
_MCLRE_ON                         00003FFF
_PWRTE_OFF                        00003FFF
_PWRTE_ON                         00003FEF
_WDTE_OFF                         00003FF7
_WDTE_ON                          00003FFF
_WDT_OFF                          00003FF7
_WDT_ON                           00003FFF
_WRT_1FOURTH                      00003BFF
_WRT_256                          00003DFF
_WRT_HALF                         000039FF
_WRT_OFF                          00003FFF
_XT_OSC                           00003FF9
__16F887                          00000001
__DEBUG                           
__MPLAB_DEBUGGER_SIMULATOR        1
bin                               00000028
completeTenCarry                  00000092
completeUnitCarry                 0000008A
continue                          00000096
count8                            00000029
endBinary2BCD                     000000A9
fin_show                          00000036
setl8                             00000030
setl9                             00000035
show_L9                           00000031
startconversion                   00000080
temp                              0000002A

Errors   :     0
Warnings :     0 reported,     0 suppressed
Messages :     8 reported,     0 suppressed

